; Function Attrs: mustprogress nounwind uwtable
define dso_local noundef nonnull align 8 dereferenceable(24) ptr @_ZN5clang6driver18MultilibSetBuilder6EitherERKNS0_15MultilibBuilderES4_S4_(ptr noundef nonnull returned align 8 dereferenceable(24) %0, ptr noundef nonnull align 8 dereferenceable(120) %1, ptr noundef nonnull align 8 dereferenceable(120) %2, ptr noundef nonnull align 8 dereferenceable(120) %3) local_unnamed_addr #0 align 2 {
  %5 = alloca [3 x %"class.clang::driver::MultilibBuilder"], align 8
  call void @_ZN5clang6driver15MultilibBuilderC2ERKS1_(ptr noundef nonnull align 8 dereferenceable(120) %5, ptr noundef nonnull align 8 dereferenceable(120) %1)
  %6 = getelementptr inbounds i8, ptr %5, i64 120
  call void @_ZN5clang6driver15MultilibBuilderC2ERKS1_(ptr noundef nonnull align 8 dereferenceable(120) %6, ptr noundef nonnull align 8 dereferenceable(120) %2)
  %7 = getelementptr inbounds i8, ptr %5, i64 240
  call void @_ZN5clang6driver15MultilibBuilderC2ERKS1_(ptr noundef nonnull align 8 dereferenceable(120) %7, ptr noundef nonnull align 8 dereferenceable(120) %3)
  %8 = call noundef nonnull align 8 dereferenceable(24) ptr @_ZN5clang6driver18MultilibSetBuilder6EitherEN4llvm8ArrayRefINS0_15MultilibBuilderEEE(ptr noundef nonnull align 8 dereferenceable(24) %0, ptr nonnull %5, i64 3)
  %9 = getelementptr inbounds i8, ptr %5, i64 360
  br label %10

10:                                               ; preds = %_ZN5clang6driver15MultilibBuilderD2Ev.exit, %4
  %11 = phi ptr [ %9, %4 ], [ %12, %_ZN5clang6driver15MultilibBuilderD2Ev.exit ]
  %12 = getelementptr inbounds i8, ptr %11, i64 -120
  %13 = getelementptr inbounds i8, ptr %11, i64 -24
  %14 = load ptr, ptr %13, align 8
  %15 = getelementptr inbounds i8, ptr %11, i64 -16
  %16 = load ptr, ptr %15, align 8
  %.not4.i.i.i.i.i = icmp eq ptr %14, %16
  br i1 %.not4.i.i.i.i.i, label %_ZSt8_DestroyIPNSt7__cxx1112basic_stringIcSt11char_traitsIcESaIcEEES5_EvT_S7_RSaIT0_E.exit.i.i, label %.lr.ph.i.i.i.i.i

.lr.ph.i.i.i.i.i:                                 ; preds = %10, %.lr.ph.i.i.i.i.i
  %.05.i.i.i.i.i = phi ptr [ %17, %.lr.ph.i.i.i.i.i ], [ %14, %10 ]
  call void @_ZNSt7__cxx1112basic_stringIcSt11char_traitsIcESaIcEED1Ev(ptr noundef nonnull align 8 dereferenceable(32) %.05.i.i.i.i.i) #14
  %17 = getelementptr inbounds i8, ptr %.05.i.i.i.i.i, i64 32
  %.not.i.i.i.i.i = icmp eq ptr %17, %16
  br i1 %.not.i.i.i.i.i, label %_ZSt8_DestroyIPNSt7__cxx1112basic_stringIcSt11char_traitsIcESaIcEEES5_EvT_S7_RSaIT0_E.exitthread-pre-split.i.i, label %.lr.ph.i.i.i.i.i, !llvm.loop !14

_ZSt8_DestroyIPNSt7__cxx1112basic_stringIcSt11char_traitsIcESaIcEEES5_EvT_S7_RSaIT0_E.exitthread-pre-split.i.i: ; preds = %.lr.ph.i.i.i.i.i
  %.pr.i.i = load ptr, ptr %13, align 8
  br label %_ZSt8_DestroyIPNSt7__cxx1112basic_stringIcSt11char_traitsIcESaIcEEES5_EvT_S7_RSaIT0_E.exit.i.i

_ZSt8_DestroyIPNSt7__cxx1112basic_stringIcSt11char_traitsIcESaIcEEES5_EvT_S7_RSaIT0_E.exit.i.i: ; preds = %_ZSt8_DestroyIPNSt7__cxx1112basic_stringIcSt11char_traitsIcESaIcEEES5_EvT_S7_RSaIT0_E.exitthread-pre-split.i.i, %10
  %18 = phi ptr [ %.pr.i.i, %_ZSt8_DestroyIPNSt7__cxx1112basic_stringIcSt11char_traitsIcESaIcEEES5_EvT_S7_RSaIT0_E.exitthread-pre-split.i.i ], [ %14, %10 ]
  %.not.i.i.i.i = icmp eq ptr %18, null
  br i1 %.not.i.i.i.i, label %_ZN5clang6driver15MultilibBuilderD2Ev.exit, label %19

19:                                               ; preds = %_ZSt8_DestroyIPNSt7__cxx1112basic_stringIcSt11char_traitsIcESaIcEEES5_EvT_S7_RSaIT0_E.exit.i.i
  %20 = getelementptr inbounds i8, ptr %11, i64 -8
  %21 = load ptr, ptr %20, align 8
  %22 = ptrtoint ptr %21 to i64
  %23 = ptrtoint ptr %18 to i64
  %24 = sub i64 %22, %23
  call void @_ZdlPvm(ptr noundef nonnull %18, i64 noundef %24) #15
  br label %_ZN5clang6driver15MultilibBuilderD2Ev.exit

_ZN5clang6driver15MultilibBuilderD2Ev.exit:       ; preds = %_ZSt8_DestroyIPNSt7__cxx1112basic_stringIcSt11char_traitsIcESaIcEEES5_EvT_S7_RSaIT0_E.exit.i.i, %19
  %25 = getelementptr inbounds i8, ptr %11, i64 -56
  call void @_ZNSt7__cxx1112basic_stringIcSt11char_traitsIcESaIcEED1Ev(ptr noundef nonnull align 8 dereferenceable(32) %25) #14
  %26 = getelementptr inbounds i8, ptr %11, i64 -88
  call void @_ZNSt7__cxx1112basic_stringIcSt11char_traitsIcESaIcEED1Ev(ptr noundef nonnull align 8 dereferenceable(32) %26) #14
  call void @_ZNSt7__cxx1112basic_stringIcSt11char_traitsIcESaIcEED1Ev(ptr noundef nonnull align 8 dereferenceable(32) %12) #14
  %27 = icmp eq ptr %12, %5
  br i1 %27, label %28, label %10

28:                                               ; preds = %_ZN5clang6driver15MultilibBuilderD2Ev.exit
  ret ptr %0
}